; Function Attrs: mustprogress nofree norecurse nosync nounwind willreturn memory(readwrite, inaccessiblemem: none) uwtable
define void @fast_node(ptr noundef readonly captures(none) %0, ptr noundef %1) local_unnamed_addr #5 {
  %3 = getelementptr inbounds nuw i8, ptr %0, i64 16
  %4 = load ptr, ptr %3, align 8, !tbaa !3
  %5 = getelementptr inbounds nuw i8, ptr %4, i64 256
  %6 = load ptr, ptr %5, align 8, !tbaa !62
  %7 = getelementptr inbounds nuw i8, ptr %1, i64 16
  %8 = load ptr, ptr %7, align 8, !tbaa !3
  %9 = getelementptr inbounds nuw i8, ptr %8, i64 240
  store ptr %6, ptr %9, align 8, !tbaa !72
  %.not = icmp eq ptr %6, null
  br i1 %.not, label %14, label %10

10:                                               ; preds = %2
  %11 = getelementptr inbounds nuw i8, ptr %6, i64 16
  %12 = load ptr, ptr %11, align 8, !tbaa !3
  %13 = getelementptr inbounds nuw i8, ptr %12, i64 248
  store ptr %1, ptr %13, align 8, !tbaa !73
  br label %14

14:                                               ; preds = %10, %2
  store ptr %1, ptr %5, align 8, !tbaa !62
  %15 = getelementptr inbounds nuw i8, ptr %8, i64 248
  store ptr null, ptr %15, align 8, !tbaa !73
  ret void
}